target datalayout = "e-m:e-p270:32:32-p271:32:32-p272:64:64-i64:64-i128:128-f80:128-n8:16:32:64-S128"
target triple = "x86_64-pc-linux-gnu"

%struct.bio_st = type { ptr, ptr, ptr, i32, i32, i32, i32, i32, i32, ptr, ptr, i64, i64 }
%struct.bio_connect_st = type { i32, ptr, ptr, i32, i16, %struct.sockaddr_storage, i32, ptr }
%struct.sockaddr_storage = type { i16, [118 x i8], i64 }

; Function Attrs: nounwind uwtable
define internal i32 @closesocket(i32 noundef %0) #0 {
  %2 = alloca i32, align 4
  store i32 %0, ptr %2, align 4, !tbaa !13
  %3 = load i32, ptr %2, align 4, !tbaa !13
  %4 = call i32 @close(i32 noundef %3)
  ret i32 %4
}

; Function Attrs: nounwind uwtable
define internal void @BIO_CONNECT_free(ptr noundef %0) #0 {
  %2 = alloca ptr, align 8
  store ptr %0, ptr %2, align 8, !tbaa !19
  %3 = load ptr, ptr %2, align 8, !tbaa !19
  %4 = icmp eq ptr %3, null
  br i1 %4, label %5, label %6

5:                                                ; preds = %1
  br label %14

6:                                                ; preds = %1
  %7 = load ptr, ptr %2, align 8, !tbaa !19
  %8 = getelementptr inbounds nuw %struct.bio_connect_st, ptr %7, i32 0, i32 1
  %9 = load ptr, ptr %8, align 8, !tbaa !30
  call void @free(ptr noundef %9) #7
  %10 = load ptr, ptr %2, align 8, !tbaa !19
  %11 = getelementptr inbounds nuw %struct.bio_connect_st, ptr %10, i32 0, i32 2
  %12 = load ptr, ptr %11, align 8, !tbaa !31
  call void @free(ptr noundef %12) #7
  %13 = load ptr, ptr %2, align 8, !tbaa !19
  call void @free(ptr noundef %13) #7
  br label %14

14:                                               ; preds = %6, %5
  ret void
}

; Function Attrs: nounwind uwtable
define internal void @conn_close_socket(ptr noundef %0) #0 {
  %2 = alloca ptr, align 8
  %3 = alloca ptr, align 8
  %4 = alloca i32, align 4
  store ptr %0, ptr %2, align 8, !tbaa !11
  call void @llvm.lifetime.start.p0(i64 8, ptr %3) #7
  %5 = load ptr, ptr %2, align 8, !tbaa !11
  %6 = getelementptr inbounds nuw %struct.bio_st, ptr %5, i32 0, i32 9
  %7 = load ptr, ptr %6, align 8, !tbaa !15
  store ptr %7, ptr %3, align 8, !tbaa !19
  %8 = load ptr, ptr %2, align 8, !tbaa !11
  %9 = getelementptr inbounds nuw %struct.bio_st, ptr %8, i32 0, i32 7
  %10 = load i32, ptr %9, align 8, !tbaa !25
  %11 = icmp eq i32 %10, -1
  br i1 %11, label %12, label %13

12:                                               ; preds = %1
  store i32 1, ptr %4, align 4
  br label %30

13:                                               ; preds = %1
  %14 = load ptr, ptr %3, align 8, !tbaa !19
  %15 = getelementptr inbounds nuw %struct.bio_connect_st, ptr %14, i32 0, i32 0
  %16 = load i32, ptr %15, align 8, !tbaa !21
  %17 = icmp eq i32 %16, 2
  br i1 %17, label %18, label %23

18:                                               ; preds = %13
  %19 = load ptr, ptr %2, align 8, !tbaa !11
  %20 = getelementptr inbounds nuw %struct.bio_st, ptr %19, i32 0, i32 7
  %21 = load i32, ptr %20, align 8, !tbaa !25
  %22 = call i32 @shutdown(i32 noundef %21, i32 noundef 2) #7
  br label %23

23:                                               ; preds = %18, %13
  %24 = load ptr, ptr %2, align 8, !tbaa !11
  %25 = getelementptr inbounds nuw %struct.bio_st, ptr %24, i32 0, i32 7
  %26 = load i32, ptr %25, align 8, !tbaa !25
  %27 = call i32 @closesocket(i32 noundef %26)
  %28 = load ptr, ptr %2, align 8, !tbaa !11
  %29 = getelementptr inbounds nuw %struct.bio_st, ptr %28, i32 0, i32 7
  store i32 -1, ptr %29, align 8, !tbaa !25
  store i32 0, ptr %4, align 4
  br label %30

30:                                               ; preds = %23, %12
  call void @llvm.lifetime.end.p0(i64 8, ptr %3) #7
  %31 = load i32, ptr %4, align 4
  switch i32 %31, label %33 [
    i32 0, label %32
    i32 1, label %32
  ]

32:                                               ; preds = %30, %30
  ret void

33:                                               ; preds = %30
  unreachable
}

; Function Attrs: nounwind uwtable
define internal i32 @conn_free(ptr noundef %0) #0 {
  %2 = alloca i32, align 4
  %3 = alloca ptr, align 8
  store ptr %0, ptr %3, align 8, !tbaa !11
  %4 = load ptr, ptr %3, align 8, !tbaa !11
  %5 = icmp eq ptr %4, null
  br i1 %5, label %6, label %7

6:                                                ; preds = %1
  store i32 0, ptr %2, align 4
  br label %18

7:                                                ; preds = %1
  %8 = load ptr, ptr %3, align 8, !tbaa !11
  %9 = getelementptr inbounds nuw %struct.bio_st, ptr %8, i32 0, i32 4
  %10 = load i32, ptr %9, align 4, !tbaa !35
  %11 = icmp ne i32 %10, 0
  br i1 %11, label %12, label %14

12:                                               ; preds = %7
  %13 = load ptr, ptr %3, align 8, !tbaa !11
  call void @conn_close_socket(ptr noundef %13)
  br label %14

14:                                               ; preds = %12, %7
  %15 = load ptr, ptr %3, align 8, !tbaa !11
  %16 = getelementptr inbounds nuw %struct.bio_st, ptr %15, i32 0, i32 9
  %17 = load ptr, ptr %16, align 8, !tbaa !15
  call void @BIO_CONNECT_free(ptr noundef %17)
  store i32 1, ptr %2, align 4
  br label %18

18:                                               ; preds = %14, %6
  %19 = load i32, ptr %2, align 4
  ret i32 %19
}