; Function Attrs: nounwind uwtable
define internal range(i32 0, 2) i32 @conn_free(ptr noundef captures(address_is_null) %0) #0 {
  %2 = icmp eq ptr %0, null
  br i1 %2, label %BIO_CONNECT_free.exit, label %3

3:                                                ; preds = %1
  %4 = getelementptr inbounds nuw i8, ptr %0, i64 28
  %5 = load i32, ptr %4, align 4, !tbaa !27
  %.not = icmp eq i32 %5, 0
  br i1 %.not, label %conn_close_socket.exit, label %6

6:                                                ; preds = %3
  %7 = getelementptr inbounds nuw i8, ptr %0, i64 40
  %8 = load i32, ptr %7, align 8, !tbaa !20
  %9 = icmp eq i32 %8, -1
  br i1 %9, label %conn_close_socket.exit, label %10

10:                                               ; preds = %6
  %11 = getelementptr inbounds nuw i8, ptr %0, i64 48
  %12 = load ptr, ptr %11, align 8, !tbaa !6
  %13 = load i32, ptr %12, align 8, !tbaa !16
  %14 = icmp eq i32 %13, 2
  br i1 %14, label %15, label %17

15:                                               ; preds = %10
  %16 = tail call i32 @shutdown(i32 noundef %8, i32 noundef 2) #10
  %.pre.i = load i32, ptr %7, align 8, !tbaa !20
  br label %17

17:                                               ; preds = %15, %10
  %18 = phi i32 [ %.pre.i, %15 ], [ %8, %10 ]
  %19 = tail call i32 @close(i32 noundef %18) #10
  store i32 -1, ptr %7, align 8, !tbaa !20
  br label %conn_close_socket.exit

conn_close_socket.exit:                           ; preds = %17, %6, %3
  %20 = getelementptr inbounds nuw i8, ptr %0, i64 48
  %21 = load ptr, ptr %20, align 8, !tbaa !6
  %22 = icmp eq ptr %21, null
  br i1 %22, label %BIO_CONNECT_free.exit, label %23

23:                                               ; preds = %conn_close_socket.exit
  %24 = getelementptr inbounds nuw i8, ptr %21, i64 8
  %25 = load ptr, ptr %24, align 8, !tbaa !23
  tail call void @free(ptr noundef %25) #10
  %26 = getelementptr inbounds nuw i8, ptr %21, i64 16
  %27 = load ptr, ptr %26, align 8, !tbaa !24
  tail call void @free(ptr noundef %27) #10
  tail call void @free(ptr noundef nonnull %21) #10
  br label %BIO_CONNECT_free.exit

BIO_CONNECT_free.exit:                            ; preds = %23, %conn_close_socket.exit, %1
  %.0 = phi i32 [ 0, %1 ], [ 1, %conn_close_socket.exit ], [ 1, %23 ]
  ret i32 %.0
}